target datalayout = "e-m:e-p270:32:32-p271:32:32-p272:64:64-i64:64-i128:128-f80:128-n8:16:32:64-S128"
target triple = "x86_64-pc-linux-gnu"

%"class.rocksdb::Slice" = type { ptr, i64 }

; Function Attrs: inlinehint mustprogress nounwind uwtable
define linkonce_odr noundef i32 @_ZNK7rocksdb5Slice7compareERKS0_(ptr noundef nonnull align 8 dereferenceable(16) %0, ptr noundef nonnull align 8 dereferenceable(16) %1) #1 comdat align 2 {
  %3 = alloca ptr, align 8
  %4 = alloca ptr, align 8
  %5 = alloca i64, align 8
  %6 = alloca i32, align 4
  store ptr %0, ptr %3, align 8, !tbaa !13
  store ptr %1, ptr %4, align 8, !tbaa !13
  %7 = load ptr, ptr %3, align 8
  call void @llvm.lifetime.start.p0(i64 8, ptr %5) #5
  %8 = getelementptr inbounds nuw %"class.rocksdb::Slice", ptr %7, i32 0, i32 1
  %9 = load i64, ptr %8, align 8, !tbaa !17
  %10 = load ptr, ptr %4, align 8, !tbaa !13
  %11 = getelementptr inbounds nuw %"class.rocksdb::Slice", ptr %10, i32 0, i32 1
  %12 = load i64, ptr %11, align 8, !tbaa !17
  %13 = icmp ult i64 %9, %12
  br i1 %13, label %14, label %17

14:                                               ; preds = %2
  %15 = getelementptr inbounds nuw %"class.rocksdb::Slice", ptr %7, i32 0, i32 1
  %16 = load i64, ptr %15, align 8, !tbaa !17
  br label %21

17:                                               ; preds = %2
  %18 = load ptr, ptr %4, align 8, !tbaa !13
  %19 = getelementptr inbounds nuw %"class.rocksdb::Slice", ptr %18, i32 0, i32 1
  %20 = load i64, ptr %19, align 8, !tbaa !17
  br label %21

21:                                               ; preds = %17, %14
  %22 = phi i64 [ %16, %14 ], [ %20, %17 ]
  store i64 %22, ptr %5, align 8, !tbaa !4
  call void @llvm.lifetime.start.p0(i64 4, ptr %6) #5
  %23 = getelementptr inbounds nuw %"class.rocksdb::Slice", ptr %7, i32 0, i32 0
  %24 = load ptr, ptr %23, align 8, !tbaa !15
  %25 = load ptr, ptr %4, align 8, !tbaa !13
  %26 = getelementptr inbounds nuw %"class.rocksdb::Slice", ptr %25, i32 0, i32 0
  %27 = load ptr, ptr %26, align 8, !tbaa !15
  %28 = load i64, ptr %5, align 8, !tbaa !4
  %29 = call i32 @memcmp(ptr noundef %24, ptr noundef %27, i64 noundef %28) #24
  store i32 %29, ptr %6, align 4, !tbaa !58
  %30 = load i32, ptr %6, align 4, !tbaa !58
  %31 = icmp eq i32 %30, 0
  br i1 %31, label %32, label %50

32:                                               ; preds = %21
  %33 = getelementptr inbounds nuw %"class.rocksdb::Slice", ptr %7, i32 0, i32 1
  %34 = load i64, ptr %33, align 8, !tbaa !17
  %35 = load ptr, ptr %4, align 8, !tbaa !13
  %36 = getelementptr inbounds nuw %"class.rocksdb::Slice", ptr %35, i32 0, i32 1
  %37 = load i64, ptr %36, align 8, !tbaa !17
  %38 = icmp ult i64 %34, %37
  br i1 %38, label %39, label %40

39:                                               ; preds = %32
  store i32 -1, ptr %6, align 4, !tbaa !58
  br label %49

40:                                               ; preds = %32
  %41 = getelementptr inbounds nuw %"class.rocksdb::Slice", ptr %7, i32 0, i32 1
  %42 = load i64, ptr %41, align 8, !tbaa !17
  %43 = load ptr, ptr %4, align 8, !tbaa !13
  %44 = getelementptr inbounds nuw %"class.rocksdb::Slice", ptr %43, i32 0, i32 1
  %45 = load i64, ptr %44, align 8, !tbaa !17
  %46 = icmp ugt i64 %42, %45
  br i1 %46, label %47, label %48

47:                                               ; preds = %40
  store i32 1, ptr %6, align 4, !tbaa !58
  br label %48

48:                                               ; preds = %47, %40
  br label %49

49:                                               ; preds = %48, %39
  br label %50

50:                                               ; preds = %49, %21
  %51 = load i32, ptr %6, align 4, !tbaa !58
  call void @llvm.lifetime.end.p0(i64 4, ptr %6) #5
  call void @llvm.lifetime.end.p0(i64 8, ptr %5) #5
  ret i32 %51
}

; Function Attrs: mustprogress nounwind uwtable
define internal noundef i32 @_ZNK7rocksdb12_GLOBAL__N_129ReverseBytewiseComparatorImpl23CompareWithoutTimestampERKNS_5SliceEbS4_b(ptr noundef nonnull align 8 dereferenceable(48) %0, ptr noundef nonnull align 8 dereferenceable(16) %1, i1 noundef zeroext %2, ptr noundef nonnull align 8 dereferenceable(16) %3, i1 noundef zeroext %4) unnamed_addr #3 align 2 {
  %6 = alloca ptr, align 8
  %7 = alloca ptr, align 8
  %8 = alloca i8, align 1
  %9 = alloca ptr, align 8
  %10 = alloca i8, align 1
  store ptr %0, ptr %6, align 8, !tbaa !23
  store ptr %1, ptr %7, align 8, !tbaa !13
  %11 = zext i1 %2 to i8
  store i8 %11, ptr %8, align 1, !tbaa !83
  store ptr %3, ptr %9, align 8, !tbaa !13
  %12 = zext i1 %4 to i8
  store i8 %12, ptr %10, align 1, !tbaa !83
  %13 = load ptr, ptr %7, align 8, !tbaa !13
  %14 = load ptr, ptr %9, align 8, !tbaa !13
  %15 = call noundef i32 @_ZNK7rocksdb5Slice7compareERKS0_(ptr noundef nonnull align 8 dereferenceable(16) %13, ptr noundef nonnull align 8 dereferenceable(16) %14)
  %16 = sub nsw i32 0, %15
  ret i32 %16
}