; Function Attrs: mustprogress nofree nounwind willreturn memory(read, inaccessiblemem: none) uwtable
define internal noundef range(i32 -2147483647, -2147483648) i32 @_ZNK7rocksdb12_GLOBAL__N_129ReverseBytewiseComparatorImpl23CompareWithoutTimestampERKNS_5SliceEbS4_b(ptr nonnull readnone align 8 captures(none) %0, ptr noundef nonnull readonly align 8 captures(none) dereferenceable(16) %1, i1 zeroext %2, ptr noundef nonnull readonly align 8 captures(none) dereferenceable(16) %3, i1 zeroext %4) unnamed_addr #10 align 2 {
  %6 = getelementptr inbounds nuw i8, ptr %1, i64 8
  %7 = load i64, ptr %6, align 8, !tbaa !29
  %8 = getelementptr inbounds nuw i8, ptr %3, i64 8
  %9 = load i64, ptr %8, align 8, !tbaa !29
  %..i = tail call i64 @llvm.umin.i64(i64 %7, i64 %9)
  %10 = load ptr, ptr %1, align 8, !tbaa !32
  %11 = load ptr, ptr %3, align 8, !tbaa !32
  %12 = tail call i32 @memcmp(ptr noundef %10, ptr noundef %11, i64 noundef %..i) #31
  %.not.i = icmp eq i32 %12, 0
  %.mux.i = tail call i32 @llvm.ucmp.i32.i64(i64 %7, i64 %9)
  %.0.i = select i1 %.not.i, i32 %.mux.i, i32 %12
  %13 = sub nsw i32 0, %.0.i
  ret i32 %13
}